; Function Attrs: mustprogress uwtable
define internal fastcc void @_ZN17grpc_event_engine12experimental12_GLOBAL__N_120SetSocketNonBlockingEi(ptr noalias align 8 %agg.result, i32 noundef %fd) unnamed_addr #3 personality ptr @__gxx_personality_v0 {
entry:
  %ref.tmp = alloca %"class.std::__cxx11::basic_string", align 8
  %ref.tmp1 = alloca %"class.absl::lts_20230802::AlphaNum", align 8
  %ref.tmp2 = alloca %"class.absl::lts_20230802::AlphaNum", align 8
  %ref.tmp3 = alloca %"class.std::__cxx11::basic_string", align 8
  %ref.tmp13 = alloca %"class.std::__cxx11::basic_string", align 8
  %ref.tmp14 = alloca %"class.absl::lts_20230802::AlphaNum", align 8
  %ref.tmp15 = alloca %"class.absl::lts_20230802::AlphaNum", align 8
  %ref.tmp16 = alloca %"class.std::__cxx11::basic_string", align 8
  %call = tail call i32 (i32, i32, ...) @fcntl(i32 noundef %fd, i32 noundef 3, i32 noundef 0)
  %cmp = icmp slt i32 %call, 0
  br i1 %cmp, label %if.then, label %if.end

if.then:                                          ; preds = %entry
  store i64 7, ptr %ref.tmp1, align 8
  %0 = getelementptr inbounds i8, ptr %ref.tmp1, i64 8
  store ptr @.str.3, ptr %0, align 8
  %call4 = tail call ptr @__errno_location() #13
  %1 = load i32, ptr %call4, align 4
  call void @_ZN9grpc_core8StrErrorB5cxx11Ei(ptr nonnull sret(%"class.std::__cxx11::basic_string") align 8 %ref.tmp3, i32 noundef %1)
  %call.i = call { i64, ptr } @_ZNKSt7__cxx1112basic_stringIcSt11char_traitsIcESaIcEEcvSt17basic_string_viewIcS2_EEv(ptr noundef nonnull align 8 dereferenceable(32) %ref.tmp3) #12
  %2 = extractvalue { i64, ptr } %call.i, 0
  store i64 %2, ptr %ref.tmp2, align 8
  %3 = getelementptr inbounds i8, ptr %ref.tmp2, i64 8
  %4 = extractvalue { i64, ptr } %call.i, 1
  store ptr %4, ptr %3, align 8
  invoke void @_ZN4absl12lts_202308026StrCatB5cxx11ERKNS0_8AlphaNumES3_(ptr nonnull sret(%"class.std::__cxx11::basic_string") align 8 %ref.tmp, ptr noundef nonnull align 8 dereferenceable(48) %ref.tmp1, ptr noundef nonnull align 8 dereferenceable(48) %ref.tmp2)
          to label %invoke.cont5 unwind label %lpad

invoke.cont5:                                     ; preds = %if.then
  %call6 = call { i64, ptr } @_ZNKSt7__cxx1112basic_stringIcSt11char_traitsIcESaIcEEcvSt17basic_string_viewIcS2_EEv(ptr noundef nonnull align 8 dereferenceable(32) %ref.tmp) #12
  %5 = extractvalue { i64, ptr } %call6, 0
  %6 = extractvalue { i64, ptr } %call6, 1
  invoke void @_ZN4absl12lts_202308026StatusC1ENS0_10StatusCodeESt17basic_string_viewIcSt11char_traitsIcEE(ptr noundef nonnull align 8 dereferenceable(8) %agg.result, i32 noundef 13, i64 %5, ptr %6)
          to label %invoke.cont8 unwind label %lpad7

invoke.cont8:                                     ; preds = %invoke.cont5
  call void @_ZNSt7__cxx1112basic_stringIcSt11char_traitsIcESaIcEED1Ev(ptr noundef nonnull align 8 dereferenceable(32) %ref.tmp) #12
  call void @_ZNSt7__cxx1112basic_stringIcSt11char_traitsIcESaIcEED1Ev(ptr noundef nonnull align 8 dereferenceable(32) %ref.tmp3) #12
  br label %return

lpad:                                             ; preds = %if.then
  %7 = landingpad { ptr, i32 }
          cleanup
  br label %eh.resume

lpad7:                                            ; preds = %invoke.cont5
  %8 = landingpad { ptr, i32 }
          cleanup
  call void @_ZNSt7__cxx1112basic_stringIcSt11char_traitsIcESaIcEED1Ev(ptr noundef nonnull align 8 dereferenceable(32) %ref.tmp) #12
  br label %eh.resume

if.end:                                           ; preds = %entry
  %or = or i32 %call, 2048
  %call9 = tail call i32 (i32, i32, ...) @fcntl(i32 noundef %fd, i32 noundef 4, i32 noundef %or)
  %cmp10.not = icmp eq i32 %call9, 0
  br i1 %cmp10.not, label %if.end26, label %if.then11

if.then11:                                        ; preds = %if.end
  store i64 7, ptr %ref.tmp14, align 8
  %9 = getelementptr inbounds i8, ptr %ref.tmp14, i64 8
  store ptr @.str.3, ptr %9, align 8
  %call17 = tail call ptr @__errno_location() #13
  %10 = load i32, ptr %call17, align 4
  call void @_ZN9grpc_core8StrErrorB5cxx11Ei(ptr nonnull sret(%"class.std::__cxx11::basic_string") align 8 %ref.tmp16, i32 noundef %10)
  %call.i9 = call { i64, ptr } @_ZNKSt7__cxx1112basic_stringIcSt11char_traitsIcESaIcEEcvSt17basic_string_viewIcS2_EEv(ptr noundef nonnull align 8 dereferenceable(32) %ref.tmp16) #12
  %11 = extractvalue { i64, ptr } %call.i9, 0
  store i64 %11, ptr %ref.tmp15, align 8
  %12 = getelementptr inbounds i8, ptr %ref.tmp15, i64 8
  %13 = extractvalue { i64, ptr } %call.i9, 1
  store ptr %13, ptr %12, align 8
  invoke void @_ZN4absl12lts_202308026StrCatB5cxx11ERKNS0_8AlphaNumES3_(ptr nonnull sret(%"class.std::__cxx11::basic_string") align 8 %ref.tmp13, ptr noundef nonnull align 8 dereferenceable(48) %ref.tmp14, ptr noundef nonnull align 8 dereferenceable(48) %ref.tmp15)
          to label %invoke.cont20 unwind label %lpad18

invoke.cont20:                                    ; preds = %if.then11
  %call21 = call { i64, ptr } @_ZNKSt7__cxx1112basic_stringIcSt11char_traitsIcESaIcEEcvSt17basic_string_viewIcS2_EEv(ptr noundef nonnull align 8 dereferenceable(32) %ref.tmp13) #12
  %14 = extractvalue { i64, ptr } %call21, 0
  %15 = extractvalue { i64, ptr } %call21, 1
  invoke void @_ZN4absl12lts_202308026StatusC1ENS0_10StatusCodeESt17basic_string_viewIcSt11char_traitsIcEE(ptr noundef nonnull align 8 dereferenceable(8) %agg.result, i32 noundef 13, i64 %14, ptr %15)
          to label %invoke.cont23 unwind label %lpad22

invoke.cont23:                                    ; preds = %invoke.cont20
  call void @_ZNSt7__cxx1112basic_stringIcSt11char_traitsIcESaIcEED1Ev(ptr noundef nonnull align 8 dereferenceable(32) %ref.tmp13) #12
  call void @_ZNSt7__cxx1112basic_stringIcSt11char_traitsIcESaIcEED1Ev(ptr noundef nonnull align 8 dereferenceable(32) %ref.tmp16) #12
  br label %return

lpad18:                                           ; preds = %if.then11
  %16 = landingpad { ptr, i32 }
          cleanup
  br label %eh.resume

lpad22:                                           ; preds = %invoke.cont20
  %17 = landingpad { ptr, i32 }
          cleanup
  call void @_ZNSt7__cxx1112basic_stringIcSt11char_traitsIcESaIcEED1Ev(ptr noundef nonnull align 8 dereferenceable(32) %ref.tmp13) #12
  br label %eh.resume

if.end26:                                         ; preds = %if.end
  store i64 0, ptr %agg.result, align 8, !alias.scope !7
  br label %return

return:                                           ; preds = %if.end26, %invoke.cont23, %invoke.cont8
  ret void

eh.resume:                                        ; preds = %lpad18, %lpad22, %lpad, %lpad7
  %ref.tmp16.sink = phi ptr [ %ref.tmp3, %lpad7 ], [ %ref.tmp3, %lpad ], [ %ref.tmp16, %lpad22 ], [ %ref.tmp16, %lpad18 ]
  %.pn5.pn = phi { ptr, i32 } [ %8, %lpad7 ], [ %7, %lpad ], [ %17, %lpad22 ], [ %16, %lpad18 ]
  call void @_ZNSt7__cxx1112basic_stringIcSt11char_traitsIcESaIcEED1Ev(ptr noundef nonnull align 8 dereferenceable(32) %ref.tmp16.sink) #12
  resume { ptr, i32 } %.pn5.pn
}